target datalayout = "e-m:e-p270:32:32-p271:32:32-p272:64:64-i64:64-i128:128-f80:128-n8:16:32:64-S128"
target triple = "x86_64-pc-linux-gnu"

%struct._zend_executor_globals = type { %struct._zval_struct, %struct._zval_struct, [32 x ptr], ptr, ptr, %struct._zend_array, %struct._zend_array, ptr, i32, i8, %struct._zval_struct, i32, ptr, ptr, ptr, ptr, ptr, ptr, i64, ptr, ptr, i32, ptr, i32, i64, i32, i32, i32, i8, i8, %struct.zend_atomic_bool_s, %struct.zend_atomic_bool_s, ptr, i64, ptr, ptr, %struct._zend_array, %struct._zend_array, i32, i8, %struct._zval_struct, %struct._zval_struct, %struct._zend_stack, %struct._zend_stack, %struct._zend_stack, ptr, i32, i32, i64, ptr, ptr, ptr, %struct._zend_objects_store, %struct._zend_lazy_objects_store, ptr, ptr, ptr, [3 x %struct._zend_op], ptr, i8, i8, i64, i32, i32, ptr, [16 x %struct._HashTableIterator], ptr, %union._zend_function, %struct._zend_op, %struct._zend_array, i64, %struct.zend_get_gc_buffer, ptr, ptr, ptr, i64, i8, i32, ptr, ptr, i64, %struct._zend_call_stack, i64, i64, %struct._zend_strtod_state, [6 x ptr] }
%struct.zend_atomic_bool_s = type { i8 }
%struct._zval_struct = type { %union._zend_value, %union.anon, %union.anon.2 }
%union._zend_value = type { i64 }
%union.anon = type { i32 }
%union.anon.2 = type { i32 }
%struct._zend_stack = type { i32, i32, i32, ptr }
%struct._zend_objects_store = type { ptr, i32, i32, i32 }
%struct._zend_lazy_objects_store = type { %struct._zend_array }
%struct._HashTableIterator = type { ptr, i32, i32 }
%union._zend_function = type { %struct._zend_op_array }
%struct._zend_op_array = type { i8, [3 x i8], i32, ptr, ptr, ptr, i32, i32, ptr, ptr, ptr, ptr, i32, ptr, i32, i32, i32, ptr, ptr, ptr, ptr, ptr, i32, i32, ptr, ptr, ptr, i32, i32, i32, i32, ptr, ptr, [6 x ptr] }
%struct._zend_op = type { ptr, %union._znode_op, %union._znode_op, %union._znode_op, i32, i32, i8, i8, i8, i8 }
%union._znode_op = type { i32 }
%struct._zend_array = type { %struct._zend_refcounted_h, %union.anon.4, i32, %union.anon.6, i32, i32, i32, i32, i64, ptr }
%struct._zend_refcounted_h = type { i32, %union.anon.3 }
%union.anon.3 = type { i32 }
%union.anon.4 = type { i32 }
%union.anon.6 = type { ptr }
%struct.zend_get_gc_buffer = type { ptr, ptr, ptr }
%struct._zend_call_stack = type { ptr, i64 }
%struct._zend_strtod_state = type { [8 x ptr], ptr, ptr }
%struct._zend_object_handlers = type { i32, ptr, ptr, ptr, ptr, ptr, ptr, ptr, ptr, ptr, ptr, ptr, ptr, ptr, ptr, ptr, ptr, ptr, ptr, ptr, ptr, ptr, ptr, ptr, ptr }
%struct._zend_execute_data = type { ptr, ptr, ptr, ptr, %struct._zval_struct, ptr, ptr, ptr, ptr }
%struct._zend_string = type { %struct._zend_refcounted_h, i64, i64, [1 x i8] }
%struct._phar_archive_data = type { ptr, i32, ptr, i32, ptr, i32, [12 x i8], i64, %struct._zend_array, %struct._zend_array, %struct._zend_array, i32, i32, i32, ptr, ptr, i32, i32, i32, ptr, %struct._phar_metadata_tracker, i32, i16 }
%struct._phar_metadata_tracker = type { %struct._zval_struct, ptr }
%struct._phar_entry_info = type { i32, i32, i32, i32, i32, i32, %struct._phar_metadata_tracker, ptr, i32, i64, i64, i64, ptr, ptr, i32, ptr, ptr, ptr, i8, i32, i16, i16 }
%struct._zend_object = type { %struct._zend_refcounted_h, i32, i32, ptr, ptr, ptr, [1 x %struct._zval_struct] }

@executor_globals = external global %struct._zend_executor_globals, align 8
@zend_empty_string = external global ptr, align 8
@spl_ce_BadMethodCallException = external global ptr, align 8
@.str.174 = private unnamed_addr constant [59 x i8] c"Cannot call method on an uninitialized PharFileInfo object\00", align 1
@.str.184 = private unnamed_addr constant [71 x i8] c"phar error: Cannot retrieve contents, \22%s\22 in phar \22%s\22 is a directory\00", align 1
@.str.185 = private unnamed_addr constant [60 x i8] c"phar error: Cannot retrieve contents, \22%s\22 in phar \22%s\22: %s\00", align 1
@.str.186 = private unnamed_addr constant [58 x i8] c"phar error: Cannot retrieve contents of \22%s\22 in phar \22%s\22\00", align 1

; Function Attrs: alwaysinline nounwind uwtable
define internal i32 @zval_gc_flags(i32 noundef %0) #4 {
  %2 = alloca i32, align 4
  store i32 %0, ptr %2, align 4, !tbaa !81
  %3 = load i32, ptr %2, align 4, !tbaa !81
  %4 = lshr i32 %3, 0
  %5 = and i32 %4, 1008
  ret i32 %5
}

; Function Attrs: nounwind uwtable
define hidden void @zim_PharFileInfo_getContent(ptr noundef %0, ptr noundef %1) #0 {
  %3 = alloca ptr, align 8
  %4 = alloca ptr, align 8
  %5 = alloca ptr, align 8
  %6 = alloca ptr, align 8
  %7 = alloca ptr, align 8
  %8 = alloca ptr, align 8
  %9 = alloca i32, align 4
  %10 = alloca ptr, align 8
  %11 = alloca ptr, align 8
  %12 = alloca ptr, align 8
  %13 = alloca ptr, align 8
  %14 = alloca ptr, align 8
  %15 = alloca ptr, align 8
  store ptr %0, ptr %3, align 8, !tbaa !4
  store ptr %1, ptr %4, align 8, !tbaa !9
  call void @llvm.lifetime.start.p0(i64 8, ptr %5) #17
  call void @llvm.lifetime.start.p0(i64 8, ptr %6) #17
  call void @llvm.lifetime.start.p0(i64 8, ptr %7) #17
  call void @llvm.lifetime.start.p0(i64 8, ptr %8) #17
  %16 = load ptr, ptr %3, align 8, !tbaa !4
  %17 = getelementptr inbounds nuw %struct._zend_execute_data, ptr %16, i32 0, i32 4
  %18 = getelementptr inbounds nuw %struct._zval_struct, ptr %17, i32 0, i32 2
  %19 = load i32, ptr %18, align 4, !tbaa !13
  %20 = icmp eq i32 %19, 0
  %21 = xor i1 %20, true
  %22 = xor i1 %21, true
  %23 = zext i1 %22 to i32
  %24 = sext i32 %23 to i64
  %25 = call i64 @llvm.expect.i64(i64 %24, i64 1)
  %26 = icmp ne i64 %25, 0
  br i1 %26, label %27, label %28

27:                                               ; preds = %2
  br label %29

28:                                               ; preds = %2
  call void @zend_wrong_parameters_none_error()
  br label %29

29:                                               ; preds = %28, %27
  %30 = phi i32 [ 0, %27 ], [ -1, %28 ]
  %31 = icmp eq i32 %30, -1
  br i1 %31, label %32, label %38

32:                                               ; preds = %29
  br label %33

33:                                               ; preds = %32
  %34 = load ptr, ptr getelementptr inbounds nuw (%struct._zend_executor_globals, ptr @executor_globals, i32 0, i32 54), align 8, !tbaa !14
  %35 = icmp ne ptr %34, null
  call void @llvm.assume(i1 %35)
  store i32 1, ptr %9, align 4
  br label %205

36:                                               ; No predecessors!
  br label %37

37:                                               ; preds = %36
  br label %38

38:                                               ; preds = %37, %29
  call void @llvm.lifetime.start.p0(i64 8, ptr %10) #17
  %39 = load ptr, ptr %3, align 8, !tbaa !4
  %40 = getelementptr inbounds nuw %struct._zend_execute_data, ptr %39, i32 0, i32 4
  store ptr %40, ptr %10, align 8, !tbaa !9
  call void @llvm.lifetime.start.p0(i64 8, ptr %11) #17
  %41 = load ptr, ptr %10, align 8, !tbaa !9
  %42 = getelementptr inbounds nuw %struct._zval_struct, ptr %41, i32 0, i32 0
  %43 = load ptr, ptr %42, align 8, !tbaa !13
  %44 = load ptr, ptr %10, align 8, !tbaa !9
  %45 = getelementptr inbounds nuw %struct._zval_struct, ptr %44, i32 0, i32 0
  %46 = load ptr, ptr %45, align 8, !tbaa !13
  %47 = getelementptr inbounds nuw %struct._zend_object, ptr %46, i32 0, i32 4
  %48 = load ptr, ptr %47, align 8, !tbaa !118
  %49 = getelementptr inbounds nuw %struct._zend_object_handlers, ptr %48, i32 0, i32 0
  %50 = load i32, ptr %49, align 8, !tbaa !121
  %51 = sext i32 %50 to i64
  %52 = sub i64 0, %51
  %53 = getelementptr inbounds i8, ptr %43, i64 %52
  store ptr %53, ptr %11, align 8, !tbaa !234
  %54 = load ptr, ptr %11, align 8, !tbaa !234
  %55 = load ptr, ptr %54, align 8, !tbaa !13
  %56 = icmp ne ptr %55, null
  br i1 %56, label %65, label %57

57:                                               ; preds = %38
  %58 = load ptr, ptr @spl_ce_BadMethodCallException, align 8, !tbaa !53
  %59 = call ptr (ptr, i64, ptr, ...) @zend_throw_exception_ex(ptr noundef %58, i64 noundef 0, ptr noundef @.str.174)
  br label %60

60:                                               ; preds = %57
  %61 = load ptr, ptr getelementptr inbounds nuw (%struct._zend_executor_globals, ptr @executor_globals, i32 0, i32 54), align 8, !tbaa !14
  %62 = icmp ne ptr %61, null
  call void @llvm.assume(i1 %62)
  store i32 1, ptr %9, align 4
  br label %204

63:                                               ; No predecessors!
  br label %64

64:                                               ; preds = %63
  br label %65

65:                                               ; preds = %64, %38
  %66 = load ptr, ptr %11, align 8, !tbaa !234
  %67 = load ptr, ptr %66, align 8, !tbaa !13
  %68 = getelementptr inbounds nuw %struct._phar_entry_info, ptr %67, i32 0, i32 21
  %69 = load i16, ptr %68, align 2
  %70 = lshr i16 %69, 3
  %71 = and i16 %70, 1
  %72 = zext i16 %71 to i32
  %73 = icmp ne i32 %72, 0
  br i1 %73, label %74, label %94

74:                                               ; preds = %65
  %75 = load ptr, ptr @spl_ce_BadMethodCallException, align 8, !tbaa !53
  %76 = load ptr, ptr %11, align 8, !tbaa !234
  %77 = load ptr, ptr %76, align 8, !tbaa !13
  %78 = getelementptr inbounds nuw %struct._phar_entry_info, ptr %77, i32 0, i32 7
  %79 = load ptr, ptr %78, align 8, !tbaa !192
  %80 = getelementptr inbounds nuw %struct._zend_string, ptr %79, i32 0, i32 3
  %81 = getelementptr inbounds [1 x i8], ptr %80, i64 0, i64 0
  %82 = load ptr, ptr %11, align 8, !tbaa !234
  %83 = load ptr, ptr %82, align 8, !tbaa !13
  %84 = getelementptr inbounds nuw %struct._phar_entry_info, ptr %83, i32 0, i32 16
  %85 = load ptr, ptr %84, align 8, !tbaa !195
  %86 = getelementptr inbounds nuw %struct._phar_archive_data, ptr %85, i32 0, i32 0
  %87 = load ptr, ptr %86, align 8, !tbaa !128
  %88 = call ptr (ptr, i64, ptr, ...) @zend_throw_exception_ex(ptr noundef %75, i64 noundef 0, ptr noundef @.str.184, ptr noundef %81, ptr noundef %87)
  br label %89

89:                                               ; preds = %74
  %90 = load ptr, ptr getelementptr inbounds nuw (%struct._zend_executor_globals, ptr @executor_globals, i32 0, i32 54), align 8, !tbaa !14
  %91 = icmp ne ptr %90, null
  call void @llvm.assume(i1 %91)
  store i32 1, ptr %9, align 4
  br label %204

92:                                               ; No predecessors!
  br label %93

93:                                               ; preds = %92
  br label %94

94:                                               ; preds = %93, %65
  %95 = load ptr, ptr %11, align 8, !tbaa !234
  %96 = load ptr, ptr %95, align 8, !tbaa !13
  %97 = call ptr @phar_get_link_source(ptr noundef %96)
  store ptr %97, ptr %7, align 8, !tbaa !60
  %98 = load ptr, ptr %7, align 8, !tbaa !60
  %99 = icmp ne ptr %98, null
  br i1 %99, label %103, label %100

100:                                              ; preds = %94
  %101 = load ptr, ptr %11, align 8, !tbaa !234
  %102 = load ptr, ptr %101, align 8, !tbaa !13
  store ptr %102, ptr %7, align 8, !tbaa !60
  br label %103

103:                                              ; preds = %100, %94
  %104 = load ptr, ptr %7, align 8, !tbaa !60
  %105 = call i32 @phar_open_entry_fp(ptr noundef %104, ptr noundef %5, i32 noundef 0)
  %106 = icmp ne i32 0, %105
  br i1 %106, label %107, label %129

107:                                              ; preds = %103
  %108 = load ptr, ptr @spl_ce_BadMethodCallException, align 8, !tbaa !53
  %109 = load ptr, ptr %11, align 8, !tbaa !234
  %110 = load ptr, ptr %109, align 8, !tbaa !13
  %111 = getelementptr inbounds nuw %struct._phar_entry_info, ptr %110, i32 0, i32 7
  %112 = load ptr, ptr %111, align 8, !tbaa !192
  %113 = getelementptr inbounds nuw %struct._zend_string, ptr %112, i32 0, i32 3
  %114 = getelementptr inbounds [1 x i8], ptr %113, i64 0, i64 0
  %115 = load ptr, ptr %11, align 8, !tbaa !234
  %116 = load ptr, ptr %115, align 8, !tbaa !13
  %117 = getelementptr inbounds nuw %struct._phar_entry_info, ptr %116, i32 0, i32 16
  %118 = load ptr, ptr %117, align 8, !tbaa !195
  %119 = getelementptr inbounds nuw %struct._phar_archive_data, ptr %118, i32 0, i32 0
  %120 = load ptr, ptr %119, align 8, !tbaa !128
  %121 = load ptr, ptr %5, align 8, !tbaa !49
  %122 = call ptr (ptr, i64, ptr, ...) @zend_throw_exception_ex(ptr noundef %108, i64 noundef 0, ptr noundef @.str.185, ptr noundef %114, ptr noundef %120, ptr noundef %121)
  %123 = load ptr, ptr %5, align 8, !tbaa !49
  call void @_efree(ptr noundef %123)
  br label %124

124:                                              ; preds = %107
  %125 = load ptr, ptr getelementptr inbounds nuw (%struct._zend_executor_globals, ptr @executor_globals, i32 0, i32 54), align 8, !tbaa !14
  %126 = icmp ne ptr %125, null
  call void @llvm.assume(i1 %126)
  store i32 1, ptr %9, align 4
  br label %204

127:                                              ; No predecessors!
  br label %128

128:                                              ; preds = %127
  br label %129

129:                                              ; preds = %128, %103
  %130 = load ptr, ptr %7, align 8, !tbaa !60
  %131 = call ptr @phar_get_efp(ptr noundef %130, i32 noundef 0)
  store ptr %131, ptr %6, align 8, !tbaa !105
  %132 = icmp ne ptr %131, null
  br i1 %132, label %153, label %133

133:                                              ; preds = %129
  %134 = load ptr, ptr @spl_ce_BadMethodCallException, align 8, !tbaa !53
  %135 = load ptr, ptr %11, align 8, !tbaa !234
  %136 = load ptr, ptr %135, align 8, !tbaa !13
  %137 = getelementptr inbounds nuw %struct._phar_entry_info, ptr %136, i32 0, i32 7
  %138 = load ptr, ptr %137, align 8, !tbaa !192
  %139 = getelementptr inbounds nuw %struct._zend_string, ptr %138, i32 0, i32 3
  %140 = getelementptr inbounds [1 x i8], ptr %139, i64 0, i64 0
  %141 = load ptr, ptr %11, align 8, !tbaa !234
  %142 = load ptr, ptr %141, align 8, !tbaa !13
  %143 = getelementptr inbounds nuw %struct._phar_entry_info, ptr %142, i32 0, i32 16
  %144 = load ptr, ptr %143, align 8, !tbaa !195
  %145 = getelementptr inbounds nuw %struct._phar_archive_data, ptr %144, i32 0, i32 0
  %146 = load ptr, ptr %145, align 8, !tbaa !128
  %147 = call ptr (ptr, i64, ptr, ...) @zend_throw_exception_ex(ptr noundef %134, i64 noundef 0, ptr noundef @.str.186, ptr noundef %140, ptr noundef %146)
  br label %148

148:                                              ; preds = %133
  %149 = load ptr, ptr getelementptr inbounds nuw (%struct._zend_executor_globals, ptr @executor_globals, i32 0, i32 54), align 8, !tbaa !14
  %150 = icmp ne ptr %149, null
  call void @llvm.assume(i1 %150)
  store i32 1, ptr %9, align 4
  br label %204

151:                                              ; No predecessors!
  br label %152

152:                                              ; preds = %151
  br label %153

153:                                              ; preds = %152, %129
  %154 = load ptr, ptr %7, align 8, !tbaa !60
  %155 = call i32 @phar_seek_efp(ptr noundef %154, i64 noundef 0, i32 noundef 0, i64 noundef 0, i32 noundef 0)
  %156 = load ptr, ptr %6, align 8, !tbaa !105
  %157 = load ptr, ptr %7, align 8, !tbaa !60
  %158 = getelementptr inbounds nuw %struct._phar_entry_info, ptr %157, i32 0, i32 0
  %159 = load i32, ptr %158, align 8, !tbaa !101
  %160 = zext i32 %159 to i64
  %161 = call ptr @_php_stream_copy_to_mem(ptr noundef %156, i64 noundef %160, i32 noundef 0)
  store ptr %161, ptr %8, align 8, !tbaa !46
  %162 = load ptr, ptr %8, align 8, !tbaa !46
  %163 = icmp ne ptr %162, null
  br i1 %163, label %164, label %186

164:                                              ; preds = %153
  br label %165

165:                                              ; preds = %164
  br label %166

166:                                              ; preds = %165
  call void @llvm.lifetime.start.p0(i64 8, ptr %12) #17
  %167 = load ptr, ptr %4, align 8, !tbaa !9
  store ptr %167, ptr %12, align 8, !tbaa !9
  call void @llvm.lifetime.start.p0(i64 8, ptr %13) #17
  %168 = load ptr, ptr %8, align 8, !tbaa !46
  store ptr %168, ptr %13, align 8, !tbaa !46
  %169 = load ptr, ptr %13, align 8, !tbaa !46
  %170 = load ptr, ptr %12, align 8, !tbaa !9
  %171 = getelementptr inbounds nuw %struct._zval_struct, ptr %170, i32 0, i32 0
  store ptr %169, ptr %171, align 8, !tbaa !13
  %172 = load ptr, ptr %13, align 8, !tbaa !46
  %173 = getelementptr inbounds nuw %struct._zend_string, ptr %172, i32 0, i32 0
  %174 = getelementptr inbounds nuw %struct._zend_refcounted_h, ptr %173, i32 0, i32 1
  %175 = load i32, ptr %174, align 4, !tbaa !13
  %176 = call i32 @zval_gc_flags(i32 noundef %175)
  %177 = and i32 %176, 64
  %178 = icmp ne i32 %177, 0
  %179 = select i1 %178, i32 6, i32 262
  %180 = load ptr, ptr %12, align 8, !tbaa !9
  %181 = getelementptr inbounds nuw %struct._zval_struct, ptr %180, i32 0, i32 1
  store i32 %179, ptr %181, align 8, !tbaa !13
  call void @llvm.lifetime.end.p0(i64 8, ptr %13) #17
  call void @llvm.lifetime.end.p0(i64 8, ptr %12) #17
  br label %182

182:                                              ; preds = %166
  br label %183

183:                                              ; preds = %182
  store i32 1, ptr %9, align 4
  br label %204

184:                                              ; No predecessors!
  br label %185

185:                                              ; preds = %184
  br label %203

186:                                              ; preds = %153
  br label %187

187:                                              ; preds = %186
  br label %188

188:                                              ; preds = %187
  br label %189

189:                                              ; preds = %188
  call void @llvm.lifetime.start.p0(i64 8, ptr %14) #17
  %190 = load ptr, ptr %4, align 8, !tbaa !9
  store ptr %190, ptr %14, align 8, !tbaa !9
  call void @llvm.lifetime.start.p0(i64 8, ptr %15) #17
  %191 = load ptr, ptr @zend_empty_string, align 8, !tbaa !46
  store ptr %191, ptr %15, align 8, !tbaa !46
  %192 = load ptr, ptr %15, align 8, !tbaa !46
  %193 = load ptr, ptr %14, align 8, !tbaa !9
  %194 = getelementptr inbounds nuw %struct._zval_struct, ptr %193, i32 0, i32 0
  store ptr %192, ptr %194, align 8, !tbaa !13
  %195 = load ptr, ptr %14, align 8, !tbaa !9
  %196 = getelementptr inbounds nuw %struct._zval_struct, ptr %195, i32 0, i32 1
  store i32 6, ptr %196, align 8, !tbaa !13
  call void @llvm.lifetime.end.p0(i64 8, ptr %15) #17
  call void @llvm.lifetime.end.p0(i64 8, ptr %14) #17
  br label %197

197:                                              ; preds = %189
  br label %198

198:                                              ; preds = %197
  br label %199

199:                                              ; preds = %198
  br label %200

200:                                              ; preds = %199
  store i32 1, ptr %9, align 4
  br label %204

201:                                              ; No predecessors!
  br label %202

202:                                              ; preds = %201
  br label %203

203:                                              ; preds = %202, %185
  store i32 0, ptr %9, align 4
  br label %204

204:                                              ; preds = %203, %200, %183, %148, %124, %89, %60
  call void @llvm.lifetime.end.p0(i64 8, ptr %11) #17
  call void @llvm.lifetime.end.p0(i64 8, ptr %10) #17
  br label %205

205:                                              ; preds = %204, %33
  call void @llvm.lifetime.end.p0(i64 8, ptr %8) #17
  call void @llvm.lifetime.end.p0(i64 8, ptr %7) #17
  call void @llvm.lifetime.end.p0(i64 8, ptr %6) #17
  call void @llvm.lifetime.end.p0(i64 8, ptr %5) #17
  %206 = load i32, ptr %9, align 4
  switch i32 %206, label %208 [
    i32 0, label %207
    i32 1, label %207
  ]

207:                                              ; preds = %205, %205
  ret void

208:                                              ; preds = %205
  unreachable
}