; Function Attrs: nounwind uwtable
define hidden void @zim_PharFileInfo_getContent(ptr noundef readonly captures(none) %0, ptr noundef writeonly captures(none) %1) #0 {
  %3 = alloca ptr, align 8
  call void @llvm.lifetime.start.p0(i64 8, ptr nonnull %3) #20
  %4 = getelementptr inbounds nuw i8, ptr %0, i64 44
  %5 = load i32, ptr %4, align 4, !tbaa !8
  %.not = icmp eq i32 %5, 0
  br i1 %.not, label %.critedge, label %6, !prof !105

6:                                                ; preds = %2
  tail call void @zend_wrong_parameters_none_error() #20
  %7 = load ptr, ptr getelementptr inbounds nuw (i8, ptr @executor_globals, i64 960), align 8, !tbaa !9
  %8 = icmp ne ptr %7, null
  tail call void @llvm.assume(i1 %8)
  br label %86

.critedge:                                        ; preds = %2
  %9 = getelementptr inbounds nuw i8, ptr %0, i64 32
  %10 = load ptr, ptr %9, align 8, !tbaa !8
  %11 = getelementptr inbounds nuw i8, ptr %10, i64 24
  %12 = load ptr, ptr %11, align 8, !tbaa !109
  %13 = load i32, ptr %12, align 8, !tbaa !112
  %14 = sext i32 %13 to i64
  %15 = sub nsw i64 0, %14
  %16 = getelementptr inbounds i8, ptr %10, i64 %15
  %17 = load ptr, ptr %16, align 8, !tbaa !8
  %.not35 = icmp eq ptr %17, null
  br i1 %.not35, label %18, label %23

18:                                               ; preds = %.critedge
  %19 = load ptr, ptr @spl_ce_BadMethodCallException, align 8, !tbaa !54
  %20 = tail call ptr (ptr, i64, ptr, ...) @zend_throw_exception_ex(ptr noundef %19, i64 noundef 0, ptr noundef nonnull @.str.174) #20
  %21 = load ptr, ptr getelementptr inbounds nuw (i8, ptr @executor_globals, i64 960), align 8, !tbaa !9
  %22 = icmp ne ptr %21, null
  tail call void @llvm.assume(i1 %22)
  br label %86

23:                                               ; preds = %.critedge
  %24 = getelementptr inbounds nuw i8, ptr %17, i64 146
  %25 = load i16, ptr %24, align 2
  %26 = and i16 %25, 8
  %.not36 = icmp eq i16 %26, 0
  br i1 %.not36, label %38, label %27

27:                                               ; preds = %23
  %28 = load ptr, ptr @spl_ce_BadMethodCallException, align 8, !tbaa !54
  %29 = getelementptr inbounds nuw i8, ptr %17, i64 48
  %30 = load ptr, ptr %29, align 8, !tbaa !174
  %31 = getelementptr inbounds nuw i8, ptr %30, i64 24
  %32 = getelementptr inbounds nuw i8, ptr %17, i64 120
  %33 = load ptr, ptr %32, align 8, !tbaa !173
  %34 = load ptr, ptr %33, align 8, !tbaa !117
  %35 = tail call ptr (ptr, i64, ptr, ...) @zend_throw_exception_ex(ptr noundef %28, i64 noundef 0, ptr noundef nonnull @.str.184, ptr noundef nonnull %31, ptr noundef %34) #20
  %36 = load ptr, ptr getelementptr inbounds nuw (i8, ptr @executor_globals, i64 960), align 8, !tbaa !9
  %37 = icmp ne ptr %36, null
  tail call void @llvm.assume(i1 %37)
  br label %86

38:                                               ; preds = %23
  %39 = tail call ptr @phar_get_link_source(ptr noundef nonnull %17) #20
  %.not37 = icmp eq ptr %39, null
  br i1 %.not37, label %40, label %42

40:                                               ; preds = %38
  %41 = load ptr, ptr %16, align 8, !tbaa !8
  br label %42

42:                                               ; preds = %40, %38
  %.0 = phi ptr [ %39, %38 ], [ %41, %40 ]
  %43 = call i32 @phar_open_entry_fp(ptr noundef %.0, ptr noundef nonnull %3, i32 noundef 0) #20
  %.not38 = icmp eq i32 %43, 0
  br i1 %.not38, label %58, label %44

44:                                               ; preds = %42
  %45 = load ptr, ptr @spl_ce_BadMethodCallException, align 8, !tbaa !54
  %46 = load ptr, ptr %16, align 8, !tbaa !8
  %47 = getelementptr inbounds nuw i8, ptr %46, i64 48
  %48 = load ptr, ptr %47, align 8, !tbaa !174
  %49 = getelementptr inbounds nuw i8, ptr %48, i64 24
  %50 = getelementptr inbounds nuw i8, ptr %46, i64 120
  %51 = load ptr, ptr %50, align 8, !tbaa !173
  %52 = load ptr, ptr %51, align 8, !tbaa !117
  %53 = load ptr, ptr %3, align 8, !tbaa !47
  %54 = call ptr (ptr, i64, ptr, ...) @zend_throw_exception_ex(ptr noundef %45, i64 noundef 0, ptr noundef nonnull @.str.185, ptr noundef nonnull %49, ptr noundef %52, ptr noundef %53) #20
  %55 = load ptr, ptr %3, align 8, !tbaa !47
  call void @_efree(ptr noundef %55) #20
  %56 = load ptr, ptr getelementptr inbounds nuw (i8, ptr @executor_globals, i64 960), align 8, !tbaa !9
  %57 = icmp ne ptr %56, null
  call void @llvm.assume(i1 %57)
  br label %86

58:                                               ; preds = %42
  %59 = call ptr @phar_get_efp(ptr noundef %.0, i32 noundef 0) #20
  %.not39 = icmp eq ptr %59, null
  br i1 %.not39, label %60, label %72

60:                                               ; preds = %58
  %61 = load ptr, ptr @spl_ce_BadMethodCallException, align 8, !tbaa !54
  %62 = load ptr, ptr %16, align 8, !tbaa !8
  %63 = getelementptr inbounds nuw i8, ptr %62, i64 48
  %64 = load ptr, ptr %63, align 8, !tbaa !174
  %65 = getelementptr inbounds nuw i8, ptr %64, i64 24
  %66 = getelementptr inbounds nuw i8, ptr %62, i64 120
  %67 = load ptr, ptr %66, align 8, !tbaa !173
  %68 = load ptr, ptr %67, align 8, !tbaa !117
  %69 = call ptr (ptr, i64, ptr, ...) @zend_throw_exception_ex(ptr noundef %61, i64 noundef 0, ptr noundef nonnull @.str.186, ptr noundef nonnull %65, ptr noundef %68) #20
  %70 = load ptr, ptr getelementptr inbounds nuw (i8, ptr @executor_globals, i64 960), align 8, !tbaa !9
  %71 = icmp ne ptr %70, null
  call void @llvm.assume(i1 %71)
  br label %86

72:                                               ; preds = %58
  %73 = call i32 @phar_seek_efp(ptr noundef %.0, i64 noundef 0, i32 noundef 0, i64 noundef 0, i32 noundef 0) #20
  %74 = load i32, ptr %.0, align 8, !tbaa !93
  %75 = zext i32 %74 to i64
  %76 = call ptr @_php_stream_copy_to_mem(ptr noundef nonnull %59, i64 noundef %75, i32 noundef 0) #20
  %.not40 = icmp eq ptr %76, null
  br i1 %.not40, label %83, label %77

77:                                               ; preds = %72
  store ptr %76, ptr %1, align 8, !tbaa !8
  %78 = getelementptr inbounds nuw i8, ptr %76, i64 4
  %79 = load i32, ptr %78, align 4, !tbaa !8
  %80 = and i32 %79, 64
  %.not41 = icmp eq i32 %80, 0
  %81 = select i1 %.not41, i32 262, i32 6
  %82 = getelementptr inbounds nuw i8, ptr %1, i64 8
  store i32 %81, ptr %82, align 8, !tbaa !8
  br label %86

83:                                               ; preds = %72
  %84 = load ptr, ptr @zend_empty_string, align 8, !tbaa !44
  store ptr %84, ptr %1, align 8, !tbaa !8
  %85 = getelementptr inbounds nuw i8, ptr %1, i64 8
  store i32 6, ptr %85, align 8, !tbaa !8
  br label %86

86:                                               ; preds = %18, %27, %44, %60, %77, %83, %6
  call void @llvm.lifetime.end.p0(i64 8, ptr nonnull %3) #20
  ret void
}